(lp0
(dp1
Vattack_type
p2
VMelee
p3
sVlocalized_name
p4
VAnti-Mage
p5
sVname
p6
Vnpc_dota_hero_antimage
p7
sVroles
p8
(lp9
VCarry
p10
aVEscape
p11
aVNuker
p12
asVprimary_attr
p13
Vagi
p14
sVlegs
p15
I2
sVid
p16
I1
sa(dp17
Vattack_type
p18
VMelee
p19
sVlocalized_name
p20
VAxe
p21
sVname
p22
Vnpc_dota_hero_axe
p23
sVroles
p24
(lp25
VInitiator
p26
aVDurable
p27
aVDisabler
p28
aVJungler
p29
asVprimary_attr
p30
Vstr
p31
sVlegs
p32
I2
sVid
p33
I2
sa(dp34
Vattack_type
p35
VRanged
p36
sVlocalized_name
p37
VBane
p38
sVname
p39
Vnpc_dota_hero_bane
p40
sVroles
p41
(lp42
VSupport
p43
aVDisabler
p44
aVNuker
p45
aVDurable
p46
asVprimary_attr
p47
Vint
p48
sVlegs
p49
I4
sVid
p50
I3
sa(dp51
Vattack_type
p52
VMelee
p53
sVlocalized_name
p54
VBloodseeker
p55
sVname
p56
Vnpc_dota_hero_bloodseeker
p57
sVroles
p58
(lp59
VCarry
p60
aVDisabler
p61
aVJungler
p62
aVNuker
p63
aVInitiator
p64
asVprimary_attr
p65
Vagi
p66
sVlegs
p67
I2
sVid
p68
I4
sa(dp69
Vattack_type
p70
VRanged
p71
sVlocalized_name
p72
VCrystal Maiden
p73
sVname
p74
Vnpc_dota_hero_crystal_maiden
p75
sVroles
p76
(lp77
VSupport
p78
aVDisabler
p79
aVNuker
p80
aVJungler
p81
asVprimary_attr
p82
Vint
p83
sVlegs
p84
I2
sVid
p85
I5
sa(dp86
Vattack_type
p87
VRanged
p88
sVlocalized_name
p89
VDrow Ranger
p90
sVname
p91
Vnpc_dota_hero_drow_ranger
p92
sVroles
p93
(lp94
VCarry
p95
aVDisabler
p96
aVPusher
p97
asVprimary_attr
p98
Vagi
p99
sVlegs
p100
I2
sVid
p101
I6
sa(dp102
Vattack_type
p103
VMelee
p104
sVlocalized_name
p105
VEarthshaker
p106
sVname
p107
Vnpc_dota_hero_earthshaker
p108
sVroles
p109
(lp110
VSupport
p111
aVInitiator
p112
aVDisabler
p113
aVNuker
p114
asVprimary_attr
p115
Vstr
p116
sVlegs
p117
I2
sVid
p118
I7
sa(dp119
Vattack_type
p120
VMelee
p121
sVlocalized_name
p122
VJuggernaut
p123
sVname
p124
Vnpc_dota_hero_juggernaut
p125
sVroles
p126
(lp127
VCarry
p128
aVPusher
p129
aVEscape
p130
asVprimary_attr
p131
Vagi
p132
sVlegs
p133
I2
sVid
p134
I8
sa(dp135
Vattack_type
p136
VRanged
p137
sVlocalized_name
p138
VMirana
p139
sVname
p140
Vnpc_dota_hero_mirana
p141
sVroles
p142
(lp143
VCarry
p144
aVSupport
p145
aVEscape
p146
aVNuker
p147
aVDisabler
p148
asVprimary_attr
p149
Vagi
p150
sVlegs
p151
I2
sVid
p152
I9
sa(dp153
Vattack_type
p154
VRanged
p155
sVlocalized_name
p156
VMorphling
p157
sVname
p158
Vnpc_dota_hero_morphling
p159
sVroles
p160
(lp161
VCarry
p162
aVEscape
p163
aVDurable
p164
aVNuker
p165
aVDisabler
p166
asVprimary_attr
p167
Vagi
p168
sVlegs
p169
I0
sVid
p170
I10
sa(dp171
Vattack_type
p172
VRanged
p173
sVlocalized_name
p174
VShadow Fiend
p175
sVname
p176
Vnpc_dota_hero_nevermore
p177
sVroles
p178
(lp179
VCarry
p180
aVNuker
p181
asVprimary_attr
p182
Vagi
p183
sVlegs
p184
I0
sVid
p185
I11
sa(dp186
Vattack_type
p187
VMelee
p188
sVlocalized_name
p189
VPhantom Lancer
p190
sVname
p191
Vnpc_dota_hero_phantom_lancer
p192
sVroles
p193
(lp194
VCarry
p195
aVEscape
p196
aVPusher
p197
aVNuker
p198
asVprimary_attr
p199
Vagi
p200
sVlegs
p201
I2
sVid
p202
I12
sa(dp203
Vattack_type
p204
VRanged
p205
sVlocalized_name
p206
VPuck
p207
sVname
p208
Vnpc_dota_hero_puck
p209
sVroles
p210
(lp211
VInitiator
p212
aVDisabler
p213
aVEscape
p214
aVNuker
p215
asVprimary_attr
p216
Vint
p217
sVlegs
p218
I2
sVid
p219
I13
sa(dp220
Vattack_type
p221
VMelee
p222
sVlocalized_name
p223
VPudge
p224
sVname
p225
Vnpc_dota_hero_pudge
p226
sVroles
p227
(lp228
VDisabler
p229
aVInitiator
p230
aVDurable
p231
aVNuker
p232
asVprimary_attr
p233
Vstr
p234
sVlegs
p235
I2
sVid
p236
I14
sa(dp237
Vattack_type
p238
VRanged
p239
sVlocalized_name
p240
VRazor
p241
sVname
p242
Vnpc_dota_hero_razor
p243
sVroles
p244
(lp245
VCarry
p246
aVDurable
p247
aVNuker
p248
aVPusher
p249
asVprimary_attr
p250
Vagi
p251
sVlegs
p252
I0
sVid
p253
I15
sa(dp254
Vattack_type
p255
VMelee
p256
sVlocalized_name
p257
VSand King
p258
sVname
p259
Vnpc_dota_hero_sand_king
p260
sVroles
p261
(lp262
VInitiator
p263
aVDisabler
p264
aVSupport
p265
aVNuker
p266
aVEscape
p267
aVJungler
p268
asVprimary_attr
p269
Vstr
p270
sVlegs
p271
I6
sVid
p272
I16
sa(dp273
Vattack_type
p274
VRanged
p275
sVlocalized_name
p276
VStorm Spirit
p277
sVname
p278
Vnpc_dota_hero_storm_spirit
p279
sVroles
p280
(lp281
VCarry
p282
aVEscape
p283
aVNuker
p284
aVInitiator
p285
aVDisabler
p286
asVprimary_attr
p287
Vint
p288
sVlegs
p289
I2
sVid
p290
I17
sa(dp291
Vattack_type
p292
VMelee
p293
sVlocalized_name
p294
VSven
p295
sVname
p296
Vnpc_dota_hero_sven
p297
sVroles
p298
(lp299
VCarry
p300
aVDisabler
p301
aVInitiator
p302
aVDurable
p303
aVNuker
p304
asVprimary_attr
p305
Vstr
p306
sVlegs
p307
I2
sVid
p308
I18
sa(dp309
Vattack_type
p310
VMelee
p311
sVlocalized_name
p312
VTiny
p313
sVname
p314
Vnpc_dota_hero_tiny
p315
sVroles
p316
(lp317
VCarry
p318
aVNuker
p319
aVPusher
p320
aVInitiator
p321
aVDurable
p322
aVDisabler
p323
asVprimary_attr
p324
Vstr
p325
sVlegs
p326
I2
sVid
p327
I19
sa(dp328
Vattack_type
p329
VRanged
p330
sVlocalized_name
p331
VVengeful Spirit
p332
sVname
p333
Vnpc_dota_hero_vengefulspirit
p334
sVroles
p335
(lp336
VSupport
p337
aVInitiator
p338
aVDisabler
p339
aVNuker
p340
aVEscape
p341
asVprimary_attr
p342
Vagi
p343
sVlegs
p344
I2
sVid
p345
I20
sa(dp346
Vattack_type
p347
VRanged
p348
sVlocalized_name
p349
VWindranger
p350
sVname
p351
Vnpc_dota_hero_windrunner
p352
sVroles
p353
(lp354
VCarry
p355
aVSupport
p356
aVDisabler
p357
aVEscape
p358
aVNuker
p359
asVprimary_attr
p360
Vint
p361
sVlegs
p362
I2
sVid
p363
I21
sa(dp364
Vattack_type
p365
VRanged
p366
sVlocalized_name
p367
VZeus
p368
sVname
p369
Vnpc_dota_hero_zuus
p370
sVroles
p371
(lp372
VNuker
p373
asVprimary_attr
p374
Vint
p375
sVlegs
p376
I2
sVid
p377
I22
sa(dp378
Vattack_type
p379
VMelee
p380
sVlocalized_name
p381
VKunkka
p382
sVname
p383
Vnpc_dota_hero_kunkka
p384
sVroles
p385
(lp386
VCarry
p387
aVSupport
p388
aVDisabler
p389
aVInitiator
p390
aVDurable
p391
aVNuker
p392
asVprimary_attr
p393
Vstr
p394
sVlegs
p395
I2
sVid
p396
I23
sa(dp397
Vattack_type
p398
VRanged
p399
sVlocalized_name
p400
VLina
p401
sVname
p402
Vnpc_dota_hero_lina
p403
sVroles
p404
(lp405
VSupport
p406
aVCarry
p407
aVNuker
p408
aVDisabler
p409
asVprimary_attr
p410
Vint
p411
sVlegs
p412
I2
sVid
p413
I25
sa(dp414
Vattack_type
p415
VRanged
p416
sVlocalized_name
p417
VLion
p418
sVname
p419
Vnpc_dota_hero_lion
p420
sVroles
p421
(lp422
VSupport
p423
aVDisabler
p424
aVNuker
p425
aVInitiator
p426
asVprimary_attr
p427
Vint
p428
sVlegs
p429
I2
sVid
p430
I26
sa(dp431
Vattack_type
p432
VRanged
p433
sVlocalized_name
p434
VShadow Shaman
p435
sVname
p436
Vnpc_dota_hero_shadow_shaman
p437
sVroles
p438
(lp439
VSupport
p440
aVPusher
p441
aVDisabler
p442
aVNuker
p443
aVInitiator
p444
asVprimary_attr
p445
Vint
p446
sVlegs
p447
I2
sVid
p448
I27
sa(dp449
Vattack_type
p450
VMelee
p451
sVlocalized_name
p452
VSlardar
p453
sVname
p454
Vnpc_dota_hero_slardar
p455
sVroles
p456
(lp457
VCarry
p458
aVDurable
p459
aVInitiator
p460
aVDisabler
p461
aVEscape
p462
asVprimary_attr
p463
Vstr
p464
sVlegs
p465
I0
sVid
p466
I28
sa(dp467
Vattack_type
p468
VMelee
p469
sVlocalized_name
p470
VTidehunter
p471
sVname
p472
Vnpc_dota_hero_tidehunter
p473
sVroles
p474
(lp475
VInitiator
p476
aVDurable
p477
aVDisabler
p478
aVNuker
p479
asVprimary_attr
p480
Vstr
p481
sVlegs
p482
I2
sVid
p483
I29
sa(dp484
Vattack_type
p485
VRanged
p486
sVlocalized_name
p487
VWitch Doctor
p488
sVname
p489
Vnpc_dota_hero_witch_doctor
p490
sVroles
p491
(lp492
VSupport
p493
aVNuker
p494
aVDisabler
p495
asVprimary_attr
p496
Vint
p497
sVlegs
p498
I2
sVid
p499
I30
sa(dp500
Vattack_type
p501
VRanged
p502
sVlocalized_name
p503
VLich
p504
sVname
p505
Vnpc_dota_hero_lich
p506
sVroles
p507
(lp508
VSupport
p509
aVNuker
p510
asVprimary_attr
p511
Vint
p512
sVlegs
p513
I2
sVid
p514
I31
sa(dp515
Vattack_type
p516
VMelee
p517
sVlocalized_name
p518
VRiki
p519
sVname
p520
Vnpc_dota_hero_riki
p521
sVroles
p522
(lp523
VCarry
p524
aVEscape
p525
aVDisabler
p526
asVprimary_attr
p527
Vagi
p528
sVlegs
p529
I2
sVid
p530
I32
sa(dp531
Vattack_type
p532
VRanged
p533
sVlocalized_name
p534
VEnigma
p535
sVname
p536
Vnpc_dota_hero_enigma
p537
sVroles
p538
(lp539
VDisabler
p540
aVJungler
p541
aVInitiator
p542
aVPusher
p543
asVprimary_attr
p544
Vint
p545
sVlegs
p546
I0
sVid
p547
I33
sa(dp548
Vattack_type
p549
VRanged
p550
sVlocalized_name
p551
VTinker
p552
sVname
p553
Vnpc_dota_hero_tinker
p554
sVroles
p555
(lp556
VCarry
p557
aVNuker
p558
aVPusher
p559
asVprimary_attr
p560
Vint
p561
sVlegs
p562
I2
sVid
p563
I34
sa(dp564
Vattack_type
p565
VRanged
p566
sVlocalized_name
p567
VSniper
p568
sVname
p569
Vnpc_dota_hero_sniper
p570
sVroles
p571
(lp572
VCarry
p573
aVNuker
p574
asVprimary_attr
p575
Vagi
p576
sVlegs
p577
I2
sVid
p578
I35
sa(dp579
Vattack_type
p580
VRanged
p581
sVlocalized_name
p582
VNecrophos
p583
sVname
p584
Vnpc_dota_hero_necrolyte
p585
sVroles
p586
(lp587
VCarry
p588
aVNuker
p589
aVDurable
p590
aVDisabler
p591
asVprimary_attr
p592
Vint
p593
sVlegs
p594
I2
sVid
p595
I36
sa(dp596
Vattack_type
p597
VRanged
p598
sVlocalized_name
p599
VWarlock
p600
sVname
p601
Vnpc_dota_hero_warlock
p602
sVroles
p603
(lp604
VSupport
p605
aVInitiator
p606
aVDisabler
p607
asVprimary_attr
p608
Vint
p609
sVlegs
p610
I2
sVid
p611
I37
sa(dp612
Vattack_type
p613
VMelee
p614
sVlocalized_name
p615
VBeastmaster
p616
sVname
p617
Vnpc_dota_hero_beastmaster
p618
sVroles
p619
(lp620
VInitiator
p621
aVDisabler
p622
aVDurable
p623
aVNuker
p624
asVprimary_attr
p625
Vstr
p626
sVlegs
p627
I2
sVid
p628
I38
sa(dp629
Vattack_type
p630
VRanged
p631
sVlocalized_name
p632
VQueen of Pain
p633
sVname
p634
Vnpc_dota_hero_queenofpain
p635
sVroles
p636
(lp637
VCarry
p638
aVNuker
p639
aVEscape
p640
asVprimary_attr
p641
Vint
p642
sVlegs
p643
I2
sVid
p644
I39
sa(dp645
Vattack_type
p646
VRanged
p647
sVlocalized_name
p648
VVenomancer
p649
sVname
p650
Vnpc_dota_hero_venomancer
p651
sVroles
p652
(lp653
VSupport
p654
aVNuker
p655
aVInitiator
p656
aVPusher
p657
aVDisabler
p658
asVprimary_attr
p659
Vagi
p660
sVlegs
p661
I0
sVid
p662
I40
sa(dp663
Vattack_type
p664
VMelee
p665
sVlocalized_name
p666
VFaceless Void
p667
sVname
p668
Vnpc_dota_hero_faceless_void
p669
sVroles
p670
(lp671
VCarry
p672
aVInitiator
p673
aVDisabler
p674
aVEscape
p675
aVDurable
p676
asVprimary_attr
p677
Vagi
p678
sVlegs
p679
I2
sVid
p680
I41
sa(dp681
Vattack_type
p682
VMelee
p683
sVlocalized_name
p684
VWraith King
p685
sVname
p686
Vnpc_dota_hero_skeleton_king
p687
sVroles
p688
(lp689
VCarry
p690
aVSupport
p691
aVDurable
p692
aVDisabler
p693
aVInitiator
p694
asVprimary_attr
p695
Vstr
p696
sVlegs
p697
I2
sVid
p698
I42
sa(dp699
Vattack_type
p700
VRanged
p701
sVlocalized_name
p702
VDeath Prophet
p703
sVname
p704
Vnpc_dota_hero_death_prophet
p705
sVroles
p706
(lp707
VCarry
p708
aVPusher
p709
aVNuker
p710
aVDisabler
p711
asVprimary_attr
p712
Vint
p713
sVlegs
p714
I2
sVid
p715
I43
sa(dp716
Vattack_type
p717
VMelee
p718
sVlocalized_name
p719
VPhantom Assassin
p720
sVname
p721
Vnpc_dota_hero_phantom_assassin
p722
sVroles
p723
(lp724
VCarry
p725
aVEscape
p726
asVprimary_attr
p727
Vagi
p728
sVlegs
p729
I2
sVid
p730
I44
sa(dp731
Vattack_type
p732
VRanged
p733
sVlocalized_name
p734
VPugna
p735
sVname
p736
Vnpc_dota_hero_pugna
p737
sVroles
p738
(lp739
VNuker
p740
aVPusher
p741
asVprimary_attr
p742
Vint
p743
sVlegs
p744
I2
sVid
p745
I45
sa(dp746
Vattack_type
p747
VRanged
p748
sVlocalized_name
p749
VTemplar Assassin
p750
sVname
p751
Vnpc_dota_hero_templar_assassin
p752
sVroles
p753
(lp754
VCarry
p755
aVEscape
p756
asVprimary_attr
p757
Vagi
p758
sVlegs
p759
I2
sVid
p760
I46
sa(dp761
Vattack_type
p762
VRanged
p763
sVlocalized_name
p764
VViper
p765
sVname
p766
Vnpc_dota_hero_viper
p767
sVroles
p768
(lp769
VCarry
p770
aVDurable
p771
aVInitiator
p772
aVDisabler
p773
asVprimary_attr
p774
Vagi
p775
sVlegs
p776
I0
sVid
p777
I47
sa(dp778
Vattack_type
p779
VRanged
p780
sVlocalized_name
p781
VLuna
p782
sVname
p783
Vnpc_dota_hero_luna
p784
sVroles
p785
(lp786
VCarry
p787
aVNuker
p788
aVPusher
p789
asVprimary_attr
p790
Vagi
p791
sVlegs
p792
I2
sVid
p793
I48
sa(dp794
Vattack_type
p795
VMelee
p796
sVlocalized_name
p797
VDragon Knight
p798
sVname
p799
Vnpc_dota_hero_dragon_knight
p800
sVroles
p801
(lp802
VCarry
p803
aVPusher
p804
aVDurable
p805
aVDisabler
p806
aVInitiator
p807
aVNuker
p808
asVprimary_attr
p809
Vstr
p810
sVlegs
p811
I2
sVid
p812
I49
sa(dp813
Vattack_type
p814
VRanged
p815
sVlocalized_name
p816
VDazzle
p817
sVname
p818
Vnpc_dota_hero_dazzle
p819
sVroles
p820
(lp821
VSupport
p822
aVNuker
p823
aVDisabler
p824
asVprimary_attr
p825
Vint
p826
sVlegs
p827
I2
sVid
p828
I50
sa(dp829
Vattack_type
p830
VMelee
p831
sVlocalized_name
p832
VClockwerk
p833
sVname
p834
Vnpc_dota_hero_rattletrap
p835
sVroles
p836
(lp837
VInitiator
p838
aVDisabler
p839
aVDurable
p840
aVNuker
p841
asVprimary_attr
p842
Vstr
p843
sVlegs
p844
I2
sVid
p845
I51
sa(dp846
Vattack_type
p847
VRanged
p848
sVlocalized_name
p849
VLeshrac
p850
sVname
p851
Vnpc_dota_hero_leshrac
p852
sVroles
p853
(lp854
VCarry
p855
aVSupport
p856
aVNuker
p857
aVPusher
p858
aVDisabler
p859
asVprimary_attr
p860
Vint
p861
sVlegs
p862
I4
sVid
p863
I52
sa(dp864
Vattack_type
p865
VRanged
p866
sVlocalized_name
p867
VNature's Prophet
p868
sVname
p869
Vnpc_dota_hero_furion
p870
sVroles
p871
(lp872
VCarry
p873
aVJungler
p874
aVPusher
p875
aVEscape
p876
aVNuker
p877
asVprimary_attr
p878
Vint
p879
sVlegs
p880
I2
sVid
p881
I53
sa(dp882
Vattack_type
p883
VMelee
p884
sVlocalized_name
p885
VLifestealer
p886
sVname
p887
Vnpc_dota_hero_life_stealer
p888
sVroles
p889
(lp890
VCarry
p891
aVDurable
p892
aVJungler
p893
aVEscape
p894
aVDisabler
p895
asVprimary_attr
p896
Vstr
p897
sVlegs
p898
I2
sVid
p899
I54
sa(dp900
Vattack_type
p901
VMelee
p902
sVlocalized_name
p903
VDark Seer
p904
sVname
p905
Vnpc_dota_hero_dark_seer
p906
sVroles
p907
(lp908
VInitiator
p909
aVJungler
p910
aVEscape
p911
aVDisabler
p912
asVprimary_attr
p913
Vint
p914
sVlegs
p915
I2
sVid
p916
I55
sa(dp917
Vattack_type
p918
VRanged
p919
sVlocalized_name
p920
VClinkz
p921
sVname
p922
Vnpc_dota_hero_clinkz
p923
sVroles
p924
(lp925
VCarry
p926
aVEscape
p927
aVPusher
p928
asVprimary_attr
p929
Vagi
p930
sVlegs
p931
I2
sVid
p932
I56
sa(dp933
Vattack_type
p934
VMelee
p935
sVlocalized_name
p936
VOmniknight
p937
sVname
p938
Vnpc_dota_hero_omniknight
p939
sVroles
p940
(lp941
VSupport
p942
aVDurable
p943
aVNuker
p944
asVprimary_attr
p945
Vstr
p946
sVlegs
p947
I2
sVid
p948
I57
sa(dp949
Vattack_type
p950
VRanged
p951
sVlocalized_name
p952
VEnchantress
p953
sVname
p954
Vnpc_dota_hero_enchantress
p955
sVroles
p956
(lp957
VSupport
p958
aVJungler
p959
aVPusher
p960
aVDurable
p961
aVDisabler
p962
asVprimary_attr
p963
Vint
p964
sVlegs
p965
I4
sVid
p966
I58
sa(dp967
Vattack_type
p968
VRanged
p969
sVlocalized_name
p970
VHuskar
p971
sVname
p972
Vnpc_dota_hero_huskar
p973
sVroles
p974
(lp975
VCarry
p976
aVDurable
p977
aVInitiator
p978
asVprimary_attr
p979
Vstr
p980
sVlegs
p981
I2
sVid
p982
I59
sa(dp983
Vattack_type
p984
VMelee
p985
sVlocalized_name
p986
VNight Stalker
p987
sVname
p988
Vnpc_dota_hero_night_stalker
p989
sVroles
p990
(lp991
VCarry
p992
aVInitiator
p993
aVDurable
p994
aVDisabler
p995
aVNuker
p996
asVprimary_attr
p997
Vstr
p998
sVlegs
p999
I2
sVid
p1000
I60
sa(dp1001
Vattack_type
p1002
VMelee
p1003
sVlocalized_name
p1004
VBroodmother
p1005
sVname
p1006
Vnpc_dota_hero_broodmother
p1007
sVroles
p1008
(lp1009
VCarry
p1010
aVPusher
p1011
aVEscape
p1012
aVNuker
p1013
asVprimary_attr
p1014
Vagi
p1015
sVlegs
p1016
I8
sVid
p1017
I61
sa(dp1018
Vattack_type
p1019
VMelee
p1020
sVlocalized_name
p1021
VBounty Hunter
p1022
sVname
p1023
Vnpc_dota_hero_bounty_hunter
p1024
sVroles
p1025
(lp1026
VEscape
p1027
aVNuker
p1028
asVprimary_attr
p1029
Vagi
p1030
sVlegs
p1031
I2
sVid
p1032
I62
sa(dp1033
Vattack_type
p1034
VRanged
p1035
sVlocalized_name
p1036
VWeaver
p1037
sVname
p1038
Vnpc_dota_hero_weaver
p1039
sVroles
p1040
(lp1041
VCarry
p1042
aVEscape
p1043
asVprimary_attr
p1044
Vagi
p1045
sVlegs
p1046
I4
sVid
p1047
I63
sa(dp1048
Vattack_type
p1049
VRanged
p1050
sVlocalized_name
p1051
VJakiro
p1052
sVname
p1053
Vnpc_dota_hero_jakiro
p1054
sVroles
p1055
(lp1056
VSupport
p1057
aVNuker
p1058
aVPusher
p1059
aVDisabler
p1060
asVprimary_attr
p1061
Vint
p1062
sVlegs
p1063
I2
sVid
p1064
I64
sa(dp1065
Vattack_type
p1066
VRanged
p1067
sVlocalized_name
p1068
VBatrider
p1069
sVname
p1070
Vnpc_dota_hero_batrider
p1071
sVroles
p1072
(lp1073
VInitiator
p1074
aVJungler
p1075
aVDisabler
p1076
aVEscape
p1077
asVprimary_attr
p1078
Vint
p1079
sVlegs
p1080
I2
sVid
p1081
I65
sa(dp1082
Vattack_type
p1083
VRanged
p1084
sVlocalized_name
p1085
VChen
p1086
sVname
p1087
Vnpc_dota_hero_chen
p1088
sVroles
p1089
(lp1090
VSupport
p1091
aVJungler
p1092
aVPusher
p1093
asVprimary_attr
p1094
Vint
p1095
sVlegs
p1096
I2
sVid
p1097
I66
sa(dp1098
Vattack_type
p1099
VMelee
p1100
sVlocalized_name
p1101
VSpectre
p1102
sVname
p1103
Vnpc_dota_hero_spectre
p1104
sVroles
p1105
(lp1106
VCarry
p1107
aVDurable
p1108
aVEscape
p1109
asVprimary_attr
p1110
Vagi
p1111
sVlegs
p1112
I0
sVid
p1113
I67
sa(dp1114
Vattack_type
p1115
VRanged
p1116
sVlocalized_name
p1117
VAncient Apparition
p1118
sVname
p1119
Vnpc_dota_hero_ancient_apparition
p1120
sVroles
p1121
(lp1122
VSupport
p1123
aVDisabler
p1124
aVNuker
p1125
asVprimary_attr
p1126
Vint
p1127
sVlegs
p1128
I2
sVid
p1129
I68
sa(dp1130
Vattack_type
p1131
VMelee
p1132
sVlocalized_name
p1133
VDoom
p1134
sVname
p1135
Vnpc_dota_hero_doom_bringer
p1136
sVroles
p1137
(lp1138
VCarry
p1139
aVDisabler
p1140
aVInitiator
p1141
aVDurable
p1142
aVNuker
p1143
asVprimary_attr
p1144
Vstr
p1145
sVlegs
p1146
I2
sVid
p1147
I69
sa(dp1148
Vattack_type
p1149
VMelee
p1150
sVlocalized_name
p1151
VUrsa
p1152
sVname
p1153
Vnpc_dota_hero_ursa
p1154
sVroles
p1155
(lp1156
VCarry
p1157
aVJungler
p1158
aVDurable
p1159
aVDisabler
p1160
asVprimary_attr
p1161
Vagi
p1162
sVlegs
p1163
I2
sVid
p1164
I70
sa(dp1165
Vattack_type
p1166
VMelee
p1167
sVlocalized_name
p1168
VSpirit Breaker
p1169
sVname
p1170
Vnpc_dota_hero_spirit_breaker
p1171
sVroles
p1172
(lp1173
VCarry
p1174
aVInitiator
p1175
aVDisabler
p1176
aVDurable
p1177
aVEscape
p1178
asVprimary_attr
p1179
Vstr
p1180
sVlegs
p1181
I2
sVid
p1182
I71
sa(dp1183
Vattack_type
p1184
VRanged
p1185
sVlocalized_name
p1186
VGyrocopter
p1187
sVname
p1188
Vnpc_dota_hero_gyrocopter
p1189
sVroles
p1190
(lp1191
VCarry
p1192
aVNuker
p1193
aVDisabler
p1194
asVprimary_attr
p1195
Vagi
p1196
sVlegs
p1197
I2
sVid
p1198
I72
sa(dp1199
Vattack_type
p1200
VMelee
p1201
sVlocalized_name
p1202
VAlchemist
p1203
sVname
p1204
Vnpc_dota_hero_alchemist
p1205
sVroles
p1206
(lp1207
VCarry
p1208
aVSupport
p1209
aVDurable
p1210
aVDisabler
p1211
aVInitiator
p1212
aVNuker
p1213
asVprimary_attr
p1214
Vstr
p1215
sVlegs
p1216
I2
sVid
p1217
I73
sa(dp1218
Vattack_type
p1219
VRanged
p1220
sVlocalized_name
p1221
VInvoker
p1222
sVname
p1223
Vnpc_dota_hero_invoker
p1224
sVroles
p1225
(lp1226
VCarry
p1227
aVNuker
p1228
aVDisabler
p1229
aVEscape
p1230
aVPusher
p1231
asVprimary_attr
p1232
Vint
p1233
sVlegs
p1234
I2
sVid
p1235
I74
sa(dp1236
Vattack_type
p1237
VRanged
p1238
sVlocalized_name
p1239
VSilencer
p1240
sVname
p1241
Vnpc_dota_hero_silencer
p1242
sVroles
p1243
(lp1244
VCarry
p1245
aVSupport
p1246
aVDisabler
p1247
aVInitiator
p1248
aVNuker
p1249
asVprimary_attr
p1250
Vint
p1251
sVlegs
p1252
I2
sVid
p1253
I75
sa(dp1254
Vattack_type
p1255
VRanged
p1256
sVlocalized_name
p1257
VOutworld Devourer
p1258
sVname
p1259
Vnpc_dota_hero_obsidian_destroyer
p1260
sVroles
p1261
(lp1262
VCarry
p1263
aVNuker
p1264
aVDisabler
p1265
asVprimary_attr
p1266
Vint
p1267
sVlegs
p1268
I4
sVid
p1269
I76
sa(dp1270
Vattack_type
p1271
VMelee
p1272
sVlocalized_name
p1273
VLycan
p1274
sVname
p1275
Vnpc_dota_hero_lycan
p1276
sVroles
p1277
(lp1278
VCarry
p1279
aVPusher
p1280
aVJungler
p1281
aVDurable
p1282
aVEscape
p1283
asVprimary_attr
p1284
Vstr
p1285
sVlegs
p1286
I2
sVid
p1287
I77
sa(dp1288
Vattack_type
p1289
VMelee
p1290
sVlocalized_name
p1291
VBrewmaster
p1292
sVname
p1293
Vnpc_dota_hero_brewmaster
p1294
sVroles
p1295
(lp1296
VCarry
p1297
aVInitiator
p1298
aVDurable
p1299
aVDisabler
p1300
aVNuker
p1301
asVprimary_attr
p1302
Vstr
p1303
sVlegs
p1304
I2
sVid
p1305
I78
sa(dp1306
Vattack_type
p1307
VRanged
p1308
sVlocalized_name
p1309
VShadow Demon
p1310
sVname
p1311
Vnpc_dota_hero_shadow_demon
p1312
sVroles
p1313
(lp1314
VSupport
p1315
aVDisabler
p1316
aVInitiator
p1317
aVNuker
p1318
asVprimary_attr
p1319
Vint
p1320
sVlegs
p1321
I2
sVid
p1322
I79
sa(dp1323
Vattack_type
p1324
VRanged
p1325
sVlocalized_name
p1326
VLone Druid
p1327
sVname
p1328
Vnpc_dota_hero_lone_druid
p1329
sVroles
p1330
(lp1331
VCarry
p1332
aVPusher
p1333
aVJungler
p1334
aVDurable
p1335
asVprimary_attr
p1336
Vagi
p1337
sVlegs
p1338
I2
sVid
p1339
I80
sa(dp1340
Vattack_type
p1341
VMelee
p1342
sVlocalized_name
p1343
VChaos Knight
p1344
sVname
p1345
Vnpc_dota_hero_chaos_knight
p1346
sVroles
p1347
(lp1348
VCarry
p1349
aVDisabler
p1350
aVDurable
p1351
aVPusher
p1352
aVInitiator
p1353
asVprimary_attr
p1354
Vstr
p1355
sVlegs
p1356
I2
sVid
p1357
I81
sa(dp1358
Vattack_type
p1359
VMelee
p1360
sVlocalized_name
p1361
VMeepo
p1362
sVname
p1363
Vnpc_dota_hero_meepo
p1364
sVroles
p1365
(lp1366
VCarry
p1367
aVEscape
p1368
aVNuker
p1369
aVDisabler
p1370
aVInitiator
p1371
aVPusher
p1372
asVprimary_attr
p1373
Vagi
p1374
sVlegs
p1375
I2
sVid
p1376
I82
sa(dp1377
Vattack_type
p1378
VMelee
p1379
sVlocalized_name
p1380
VTreant Protector
p1381
sVname
p1382
Vnpc_dota_hero_treant
p1383
sVroles
p1384
(lp1385
VSupport
p1386
aVInitiator
p1387
aVDurable
p1388
aVDisabler
p1389
aVEscape
p1390
asVprimary_attr
p1391
Vstr
p1392
sVlegs
p1393
I2
sVid
p1394
I83
sa(dp1395
Vattack_type
p1396
VMelee
p1397
sVlocalized_name
p1398
VOgre Magi
p1399
sVname
p1400
Vnpc_dota_hero_ogre_magi
p1401
sVroles
p1402
(lp1403
VSupport
p1404
aVNuker
p1405
aVDisabler
p1406
aVDurable
p1407
aVInitiator
p1408
asVprimary_attr
p1409
Vint
p1410
sVlegs
p1411
I2
sVid
p1412
I84
sa(dp1413
Vattack_type
p1414
VMelee
p1415
sVlocalized_name
p1416
VUndying
p1417
sVname
p1418
Vnpc_dota_hero_undying
p1419
sVroles
p1420
(lp1421
VSupport
p1422
aVDurable
p1423
aVDisabler
p1424
aVNuker
p1425
asVprimary_attr
p1426
Vstr
p1427
sVlegs
p1428
I2
sVid
p1429
I85
sa(dp1430
Vattack_type
p1431
VRanged
p1432
sVlocalized_name
p1433
VRubick
p1434
sVname
p1435
Vnpc_dota_hero_rubick
p1436
sVroles
p1437
(lp1438
VSupport
p1439
aVDisabler
p1440
aVNuker
p1441
asVprimary_attr
p1442
Vint
p1443
sVlegs
p1444
I2
sVid
p1445
I86
sa(dp1446
Vattack_type
p1447
VRanged
p1448
sVlocalized_name
p1449
VDisruptor
p1450
sVname
p1451
Vnpc_dota_hero_disruptor
p1452
sVroles
p1453
(lp1454
VSupport
p1455
aVDisabler
p1456
aVNuker
p1457
aVInitiator
p1458
asVprimary_attr
p1459
Vint
p1460
sVlegs
p1461
I2
sVid
p1462
I87
sa(dp1463
Vattack_type
p1464
VMelee
p1465
sVlocalized_name
p1466
VNyx Assassin
p1467
sVname
p1468
Vnpc_dota_hero_nyx_assassin
p1469
sVroles
p1470
(lp1471
VDisabler
p1472
aVNuker
p1473
aVInitiator
p1474
aVEscape
p1475
asVprimary_attr
p1476
Vagi
p1477
sVlegs
p1478
I6
sVid
p1479
I88
sa(dp1480
Vattack_type
p1481
VMelee
p1482
sVlocalized_name
p1483
VNaga Siren
p1484
sVname
p1485
Vnpc_dota_hero_naga_siren
p1486
sVroles
p1487
(lp1488
VCarry
p1489
aVSupport
p1490
aVPusher
p1491
aVDisabler
p1492
aVInitiator
p1493
aVEscape
p1494
asVprimary_attr
p1495
Vagi
p1496
sVlegs
p1497
I0
sVid
p1498
I89
sa(dp1499
Vattack_type
p1500
VRanged
p1501
sVlocalized_name
p1502
VKeeper of the Light
p1503
sVname
p1504
Vnpc_dota_hero_keeper_of_the_light
p1505
sVroles
p1506
(lp1507
VSupport
p1508
aVNuker
p1509
aVDisabler
p1510
aVJungler
p1511
asVprimary_attr
p1512
Vint
p1513
sVlegs
p1514
I2
sVid
p1515
I90
sa(dp1516
Vattack_type
p1517
VRanged
p1518
sVlocalized_name
p1519
VIo
p1520
sVname
p1521
Vnpc_dota_hero_wisp
p1522
sVroles
p1523
(lp1524
VSupport
p1525
aVEscape
p1526
aVNuker
p1527
asVprimary_attr
p1528
Vstr
p1529
sVlegs
p1530
I0
sVid
p1531
I91
sa(dp1532
Vattack_type
p1533
VRanged
p1534
sVlocalized_name
p1535
VVisage
p1536
sVname
p1537
Vnpc_dota_hero_visage
p1538
sVroles
p1539
(lp1540
VSupport
p1541
aVNuker
p1542
aVDurable
p1543
aVDisabler
p1544
aVPusher
p1545
asVprimary_attr
p1546
Vint
p1547
sVlegs
p1548
I2
sVid
p1549
I92
sa(dp1550
Vattack_type
p1551
VMelee
p1552
sVlocalized_name
p1553
VSlark
p1554
sVname
p1555
Vnpc_dota_hero_slark
p1556
sVroles
p1557
(lp1558
VCarry
p1559
aVEscape
p1560
aVDisabler
p1561
aVNuker
p1562
asVprimary_attr
p1563
Vagi
p1564
sVlegs
p1565
I2
sVid
p1566
I93
sa(dp1567
Vattack_type
p1568
VRanged
p1569
sVlocalized_name
p1570
VMedusa
p1571
sVname
p1572
Vnpc_dota_hero_medusa
p1573
sVroles
p1574
(lp1575
VCarry
p1576
aVDisabler
p1577
aVDurable
p1578
asVprimary_attr
p1579
Vagi
p1580
sVlegs
p1581
I0
sVid
p1582
I94
sa(dp1583
Vattack_type
p1584
VRanged
p1585
sVlocalized_name
p1586
VTroll Warlord
p1587
sVname
p1588
Vnpc_dota_hero_troll_warlord
p1589
sVroles
p1590
(lp1591
VCarry
p1592
aVPusher
p1593
aVDisabler
p1594
aVDurable
p1595
asVprimary_attr
p1596
Vagi
p1597
sVlegs
p1598
I2
sVid
p1599
I95
sa(dp1600
Vattack_type
p1601
VMelee
p1602
sVlocalized_name
p1603
VCentaur Warrunner
p1604
sVname
p1605
Vnpc_dota_hero_centaur
p1606
sVroles
p1607
(lp1608
VDurable
p1609
aVInitiator
p1610
aVDisabler
p1611
aVNuker
p1612
aVEscape
p1613
asVprimary_attr
p1614
Vstr
p1615
sVlegs
p1616
I4
sVid
p1617
I96
sa(dp1618
Vattack_type
p1619
VMelee
p1620
sVlocalized_name
p1621
VMagnus
p1622
sVname
p1623
Vnpc_dota_hero_magnataur
p1624
sVroles
p1625
(lp1626
VInitiator
p1627
aVDisabler
p1628
aVNuker
p1629
aVEscape
p1630
asVprimary_attr
p1631
Vstr
p1632
sVlegs
p1633
I4
sVid
p1634
I97
sa(dp1635
Vattack_type
p1636
VMelee
p1637
sVlocalized_name
p1638
VTimbersaw
p1639
sVname
p1640
Vnpc_dota_hero_shredder
p1641
sVroles
p1642
(lp1643
VNuker
p1644
aVDurable
p1645
aVEscape
p1646
asVprimary_attr
p1647
Vstr
p1648
sVlegs
p1649
I2
sVid
p1650
I98
sa(dp1651
Vattack_type
p1652
VMelee
p1653
sVlocalized_name
p1654
VBristleback
p1655
sVname
p1656
Vnpc_dota_hero_bristleback
p1657
sVroles
p1658
(lp1659
VCarry
p1660
aVDurable
p1661
aVInitiator
p1662
aVNuker
p1663
asVprimary_attr
p1664
Vstr
p1665
sVlegs
p1666
I2
sVid
p1667
I99
sa(dp1668
Vattack_type
p1669
VMelee
p1670
sVlocalized_name
p1671
VTusk
p1672
sVname
p1673
Vnpc_dota_hero_tusk
p1674
sVroles
p1675
(lp1676
VInitiator
p1677
aVDisabler
p1678
aVNuker
p1679
asVprimary_attr
p1680
Vstr
p1681
sVlegs
p1682
I2
sVid
p1683
I100
sa(dp1684
Vattack_type
p1685
VRanged
p1686
sVlocalized_name
p1687
VSkywrath Mage
p1688
sVname
p1689
Vnpc_dota_hero_skywrath_mage
p1690
sVroles
p1691
(lp1692
VSupport
p1693
aVNuker
p1694
aVDisabler
p1695
asVprimary_attr
p1696
Vint
p1697
sVlegs
p1698
I2
sVid
p1699
I101
sa(dp1700
Vattack_type
p1701
VMelee
p1702
sVlocalized_name
p1703
VAbaddon
p1704
sVname
p1705
Vnpc_dota_hero_abaddon
p1706
sVroles
p1707
(lp1708
VSupport
p1709
aVCarry
p1710
aVDurable
p1711
asVprimary_attr
p1712
Vstr
p1713
sVlegs
p1714
I2
sVid
p1715
I102
sa(dp1716
Vattack_type
p1717
VMelee
p1718
sVlocalized_name
p1719
VElder Titan
p1720
sVname
p1721
Vnpc_dota_hero_elder_titan
p1722
sVroles
p1723
(lp1724
VInitiator
p1725
aVDisabler
p1726
aVNuker
p1727
aVDurable
p1728
asVprimary_attr
p1729
Vstr
p1730
sVlegs
p1731
I2
sVid
p1732
I103
sa(dp1733
Vattack_type
p1734
VMelee
p1735
sVlocalized_name
p1736
VLegion Commander
p1737
sVname
p1738
Vnpc_dota_hero_legion_commander
p1739
sVroles
p1740
(lp1741
VCarry
p1742
aVDisabler
p1743
aVInitiator
p1744
aVDurable
p1745
aVNuker
p1746
asVprimary_attr
p1747
Vstr
p1748
sVlegs
p1749
I2
sVid
p1750
I104
sa(dp1751
Vattack_type
p1752
VRanged
p1753
sVlocalized_name
p1754
VTechies
p1755
sVname
p1756
Vnpc_dota_hero_techies
p1757
sVroles
p1758
(lp1759
VNuker
p1760
aVDisabler
p1761
asVprimary_attr
p1762
Vint
p1763
sVlegs
p1764
I6
sVid
p1765
I105
sa(dp1766
Vattack_type
p1767
VMelee
p1768
sVlocalized_name
p1769
VEmber Spirit
p1770
sVname
p1771
Vnpc_dota_hero_ember_spirit
p1772
sVroles
p1773
(lp1774
VCarry
p1775
aVEscape
p1776
aVNuker
p1777
aVDisabler
p1778
aVInitiator
p1779
asVprimary_attr
p1780
Vagi
p1781
sVlegs
p1782
I2
sVid
p1783
I106
sa(dp1784
Vattack_type
p1785
VMelee
p1786
sVlocalized_name
p1787
VEarth Spirit
p1788
sVname
p1789
Vnpc_dota_hero_earth_spirit
p1790
sVroles
p1791
(lp1792
VNuker
p1793
aVEscape
p1794
aVDisabler
p1795
aVInitiator
p1796
aVDurable
p1797
asVprimary_attr
p1798
Vstr
p1799
sVlegs
p1800
I2
sVid
p1801
I107
sa(dp1802
Vattack_type
p1803
VMelee
p1804
sVlocalized_name
p1805
VUnderlord
p1806
sVname
p1807
Vnpc_dota_hero_abyssal_underlord
p1808
sVroles
p1809
(lp1810
VSupport
p1811
aVNuker
p1812
aVDisabler
p1813
aVDurable
p1814
aVEscape
p1815
asVprimary_attr
p1816
Vstr
p1817
sVlegs
p1818
I2
sVid
p1819
I108
sa(dp1820
Vattack_type
p1821
VMelee
p1822
sVlocalized_name
p1823
VTerrorblade
p1824
sVname
p1825
Vnpc_dota_hero_terrorblade
p1826
sVroles
p1827
(lp1828
VCarry
p1829
aVPusher
p1830
aVNuker
p1831
asVprimary_attr
p1832
Vagi
p1833
sVlegs
p1834
I2
sVid
p1835
I109
sa(dp1836
Vattack_type
p1837
VRanged
p1838
sVlocalized_name
p1839
VPhoenix
p1840
sVname
p1841
Vnpc_dota_hero_phoenix
p1842
sVroles
p1843
(lp1844
VSupport
p1845
aVNuker
p1846
aVInitiator
p1847
aVEscape
p1848
aVDisabler
p1849
asVprimary_attr
p1850
Vstr
p1851
sVlegs
p1852
I2
sVid
p1853
I110
sa(dp1854
Vattack_type
p1855
VRanged
p1856
sVlocalized_name
p1857
VOracle
p1858
sVname
p1859
Vnpc_dota_hero_oracle
p1860
sVroles
p1861
(lp1862
VSupport
p1863
aVNuker
p1864
aVDisabler
p1865
aVEscape
p1866
asVprimary_attr
p1867
Vint
p1868
sVlegs
p1869
I2
sVid
p1870
I111
sa(dp1871
Vattack_type
p1872
VRanged
p1873
sVlocalized_name
p1874
VWinter Wyvern
p1875
sVname
p1876
Vnpc_dota_hero_winter_wyvern
p1877
sVroles
p1878
(lp1879
VSupport
p1880
aVDisabler
p1881
aVNuker
p1882
asVprimary_attr
p1883
Vint
p1884
sVlegs
p1885
I2
sVid
p1886
I112
sa(dp1887
Vattack_type
p1888
VRanged
p1889
sVlocalized_name
p1890
VArc Warden
p1891
sVname
p1892
Vnpc_dota_hero_arc_warden
p1893
sVroles
p1894
(lp1895
VCarry
p1896
aVEscape
p1897
aVNuker
p1898
asVprimary_attr
p1899
Vagi
p1900
sVlegs
p1901
I2
sVid
p1902
I113
sa(dp1903
Vattack_type
p1904
VMelee
p1905
sVlocalized_name
p1906
VMonkey King
p1907
sVname
p1908
Vnpc_dota_hero_monkey_king
p1909
sVroles
p1910
(lp1911
VCarry
p1912
aVEscape
p1913
aVDisabler
p1914
aVInitiator
p1915
asVprimary_attr
p1916
Vagi
p1917
sVlegs
p1918
I2
sVid
p1919
I114
sa(dp1920
Vattack_type
p1921
VRanged
p1922
sVlocalized_name
p1923
VDark Willow
p1924
sVname
p1925
Vnpc_dota_hero_dark_willow
p1926
sVroles
p1927
(lp1928
VSupport
p1929
aVNuker
p1930
aVDisabler
p1931
aVEscape
p1932
asVprimary_attr
p1933
Vint
p1934
sVlegs
p1935
I2
sVid
p1936
I119
sa(dp1937
Vattack_type
p1938
VMelee
p1939
sVlocalized_name
p1940
VPangolier
p1941
sVname
p1942
Vnpc_dota_hero_pangolier
p1943
sVroles
p1944
(lp1945
VCarry
p1946
aVNuker
p1947
aVDisabler
p1948
aVDurable
p1949
aVEscape
p1950
aVInitiator
p1951
asVprimary_attr
p1952
Vagi
p1953
sVlegs
p1954
I2
sVid
p1955
I120
sa(dp1956
Vattack_type
p1957
VRanged
p1958
sVlocalized_name
p1959
VGrimstroke
p1960
sVname
p1961
Vnpc_dota_hero_grimstroke
p1962
sVroles
p1963
(lp1964
VSupport
p1965
aVNuker
p1966
aVDisabler
p1967
aVEscape
p1968
asVprimary_attr
p1969
Vint
p1970
sVlegs
p1971
I2
sVid
p1972
I121
sa.