(dp0
L4074748928L
(lp1
VEvil Geniuses
p2
aVOG
p3
asL4064708096L
(lp4
VMineski
p5
aVTeam Liquid
p6
asL4076485641L
(lp7
VVirtus.pro
p8
aVEvil Geniuses
p9
asL4080723031L
(lp10
VPSG.LGD
p11
aVOG
p12
asL4063222284L
(lp13
VVGJ Storm
p14
aV
p15
asL4061880066L
(lp16
VTeam Serenity
p17
aVTeam Secret
p18
asL4062098446L
(lp19
VPSG.LGD
p20
aVTeam Liquid
p21
asL4074440208L
(lp22
VVici Gaming
p23
aVTeam Secret
p24
asL4061858332L
(lp25
VVici Gaming
p26
aVVGJ Storm
p27
asL4064939549L
(lp28
VpaiN Gaming
p29
aVVici Gaming
p30
asL4066670110L
(lp31
VMineski
p32
aVPSG.LGD
p33
asL4065095713L
(lp34
VVirtus.pro
p35
aVpaiN Gaming
p36
asL4066891298L
(lp37
VTeam Serenity
p38
aVpaiN Gaming
p39
asL4074486307L
(lp40
VTeam Secret
p41
aVVici Gaming
p42
asL4062047269L
(lp43
VVGJ Storm
p44
aVTeam Secret
p45
asL4066499119L
(lp46
VTeam Secret
p47
aVTNC Predator
p48
asL4080601137L
(lp49
VPSG.LGD
p50
aVOG
p51
asL4061984521L
(lp52
VPSG.LGD
p53
aVVGJ Thunder
p54
asL4072252473L
(lp55
VOG
p56
aVVGJ Storm
p57
asL4061952570L
(lp58
VTeam Liquid
p59
aVOG
p60
asL4061924528L
(lp61
VVGJ Thunder
p62
aVPSG.LGD
p63
asL4064796732L
(lp64
VOG
p65
aVFnatic
p66
asL4072441405L
(lp67
VTeam Secret
p68
aVEvil Geniuses
p69
asL4080778303L
(lp70
VOG
p71
aVPSG.LGD
p72
asL4064949771L
(lp73
VTeam Serenity
p74
ag15
asL4061804100L
(lp75
VVici Gaming
p76
aVVGJ Storm
p77
asL4062151757L
(lp78
VPSG.LGD
p79
aVTeam Liquid
p80
asL4061977166L
(lp81
VWinstrike
p82
aVMineski
p83
asL4064872015L
(lp84
VVGJ Storm
p85
aVTNC Predator
p86
asL4066759760L
(lp87
VEvil Geniuses
p88
aVFnatic
p89
asL4063220819L
(lp90
VNewbee
p91
aVVici Gaming
p92
asL4061922574L
(lp93
VMineski
p94
aVWinstrike
p95
asL4072772695L
(lp96
VMineski
p97
aVVirtus.pro
p98
asL4065268827L
(lp99
VVGJ Thunder
p100
aVOG
p101
asL4062099038L
(lp102
VEvil Geniuses
p103
aVMineski
p104
asL4065281130L
(lp105
VPSG.LGD
p106
aVINVICTUS GAMING
p107
asL4062142571L
(lp108
VMineski
p109
aVEvil Geniuses
p110
asL4062010988L
(lp111
VOG
p112
aVTeam Liquid
p113
asL4078412913L
(lp114
VPSG.LGD
p115
aVOG
p116
asL4063430773L
(lp117
VNewbee
p118
ag15
asL4066597494L
(lp119
VVirtus.pro
p120
aVVici Gaming
p121
asL4065077879L
(lp122
VMineski
p123
aVVGJ Thunder
p124
asL4065260154L
(lp125
VEvil Geniuses
p126
aVTeam Liquid
p127
asL4074591870L
(lp128
VPSG.LGD
p129
aVTeam Liquid
p130
asL4063600107L
(lp131
VpaiN Gaming
p132
aVVGJ Storm
p133
asL4067035268L
(lp134
VNewbee
p135
aVTeam Secret
p136
asL4062034566L
(lp137
VTeam Serenity
p138
aVVirtus.pro
p139
asL4076314248L
(lp140
VVGJ Storm
p141
aVTeam Secret
p142
asL4065164937L
(lp143
VNewbee
p144
aVVGJ Storm
p145
asL4061671194L
(lp146
VPSG.LGD
p147
aVOG
p148
asL4064854156L
(lp149
VpaiN Gaming
p150
aVVici Gaming
p151
asL4066823822L
(lp152
VVici Gaming
p153
ag15
asL4070556816L
(lp154
VVirtus.pro
p155
aVPSG.LGD
p156
asL4061662358L
(lp157
VVGJ Thunder
p158
aVEvil Geniuses
p159
asL4072509593L
(lp160
VEvil Geniuses
p161
aVTeam Secret
p162
asL4063571098L
(lp163
VFnatic
p164
aVINVICTUS GAMING
p165
asL4070746269L
(lp166
VNewbee
p167
aVWinstrike
p168
asL4063402142L
(lp169
VpaiN Gaming
p170
aVTeam Secret
p171
asL4066988194L
(lp172
VINVICTUS GAMING
p173
aVWinstrike
p174
asL4063558826L
(lp175
VMineski
p176
aVOG
p177
asL4066909869L
(lp178
VVirtus.pro
p179
aVVGJ Storm
p180
asL4063378608L
(lp181
VFnatic
p182
aVMineski
p183
asL4078363316L
(lp184
VPSG.LGD
p185
aVOG
p186
asL4078079157L
(lp187
VTeam Liquid
p188
aVTeam Secret
p189
asL4064970428L
(lp190
VTNC Predator
p191
aVVGJ Storm
p192
asL4065083072L
(lp193
VPSG.LGD
p194
aVFnatic
p195
asL4080316101L
(lp196
VPSG.LGD
p197
aVEvil Geniuses
p198
asL4063527110L
(lp199
VINVICTUS GAMING
p200
aVFnatic
p201
asL4065128649L
(lp202
g15
aVTeam Secret
p203
asL4063518923L
(lp204
VMineski
p205
aVOG
p206
asL4063289036L
(lp207
VINVICTUS GAMING
p208
aVTeam Liquid
p209
asL4063490254L
(lp210
VVici Gaming
p211
aVTeam Serenity
p212
asL4064706272L
(lp213
VVGJ Thunder
p214
aVINVICTUS GAMING
p215
asL4065140946L
(lp216
VpaiN Gaming
p217
aVVirtus.pro
p218
asL4062061780L
(lp219
VTeam Serenity
p220
aVVirtus.pro
p221
asL4066822873L
(lp222
VNewbee
p223
aVTeam Secret
p224
asL4062017242L
(lp225
VVici Gaming
p226
aVTNC Predator
p227
asL4076188379L
(lp228
g15
aVVirtus.pro
p229
asL4066995932L
(lp230
g15
aVNewbee
p231
asL4072354014L
(lp232
VVGJ Storm
p233
aVOG
p234
asL4061848287L
(lp235
VNewbee
p236
aVTNC Predator
p237
asL4066505440L
(lp238
VpaiN Gaming
p239
ag15
asL4074178274L
(lp240
VVGJ Storm
p241
aVWinstrike
p242
asL4063572817L
(lp243
VPSG.LGD
p244
aVEvil Geniuses
p245
asL4063131371L
(lp246
VNewbee
p247
aVVici Gaming
p248
asL4080856812L
(lp249
VOG
p250
aVPSG.LGD
p251
asL4063350513L
(lp252
VWinstrike
p253
aVPSG.LGD
p254
asL4065192690L
(lp255
VFnatic
p256
aVWinstrike
p257
asL4066688247L
(lp258
VOG
p259
aVWinstrike
p260
asL4061742840L
(lp261
VTeam Liquid
p262
aVFnatic
p263
asL4065017593L
(lp264
VINVICTUS GAMING
p265
aVOG
p266
asL4066598139L
(lp267
VTeam Serenity
p268
aVVGJ Storm
p269
asL4074821374L
(lp270
VOG
p271
aVEvil Geniuses
p272
asL4062045592L
(lp273
VVici Gaming
p274
aVTNC Predator
p275
asL4063202564L
(lp276
VVirtus.pro
p277
aVTeam Secret
p278
asL4065124105L
(lp279
VNewbee
p280
aVVGJ Storm
p281
asL4072586507L
(lp282
VTeam Serenity
p283
ag15
asL4070612749L
(lp284
VFnatic
p285
aVTeam Serenity
p286
asL4065178894L
(lp287
VTeam Serenity
p288
aVTNC Predator
p289
asL4063131437L
(lp290
VVirtus.pro
p291
aVTeam Secret
p292
asL4063286002L
(lp293
VPSG.LGD
p294
aVWinstrike
p295
asL4063643412L
(lp296
VpaiN Gaming
p297
aVVGJ Storm
p298
asL4066499349L
(lp299
VTeam Serenity
p300
aVVGJ Storm
p301
asL4070674710L
(lp302
VTNC Predator
p303
aVMineski
p304
asL4063131353L
(lp305
VVGJ Storm
p306
ag15
asL4063131418L
(lp307
VpaiN Gaming
p308
aVTNC Predator
p309
asL4066775838L
(lp310
VTeam Liquid
p311
aVVGJ Thunder
p312
asL4065042825L
(lp313
VTeam Liquid
p314
aVWinstrike
p315
asL4063481435L
(lp316
VNewbee
p317
ag15
asL4076043995L
(lp318
VVirtus.pro
p319
ag15
asL4064996401L
(lp320
VMineski
p321
aVVGJ Thunder
p322
asL4063359785L
(lp323
VEvil Geniuses
p324
aVOG
p325
asL4072635180L
(lp326
g15
aVTeam Serenity
p327
asL4063299885L
(lp328
VOG
p329
aVEvil Geniuses
p330
asL4063563567L
(lp331
VWinstrike
p332
aVVGJ Thunder
p333
asL4063532336L
(lp334
VEvil Geniuses
p335
aVPSG.LGD
p336
asL4063266100L
(lp337
VMineski
p338
aVFnatic
p339
asL4063653342L
(lp340
VVici Gaming
p341
aVTeam Secret
p342
asL4074639753L
(lp343
VPSG.LGD
p344
aVTeam Liquid
p345
asL4067049273L
(lp346
VINVICTUS GAMING
p347
aVWinstrike
p348
asL4061971770L
(lp349
VINVICTUS GAMING
p350
aVEvil Geniuses
p351
asL4063465788L
(lp352
VTeam Secret
p353
aVpaiN Gaming
p354
asL4072699199L
(lp355
VMineski
p356
aVVirtus.pro
p357
asL4065211201L
(lp358
VTeam Liquid
p359
aVEvil Geniuses
p360
asL4078566725L
(lp361
VTeam Liquid
p362
aVEvil Geniuses
p363
asL4066704198L
(lp364
VVGJ Thunder
p365
aVTeam Liquid
p366
asL4076257095L
(lp367
VVGJ Storm
p368
aVTeam Secret
p369
asL4063413580L
(lp370
VVirtus.pro
p371
aVTNC Predator
p372
asL4063477071L
(lp373
VTNC Predator
p374
aVVirtus.pro
p375
asL4066831697L
(lp376
VTeam Serenity
p377
aVpaiN Gaming
p378
asL4065211218L
(lp379
VVGJ Thunder
p380
aVOG
p381
asL4064786062L
(lp382
VMineski
p383
aVTeam Liquid
p384
asL4063619584L
(lp385
VNewbee
p386
aVTeam Serenity
p387
asL4078478649L
(lp388
VTeam Liquid
p389
aVEvil Geniuses
p390
asL4061921764L
(lp391
VEvil Geniuses
p392
aVINVICTUS GAMING
p393
asL4061694810L
(lp394
VINVICTUS GAMING
p395
aVMineski
p396
asL4064786780L
(lp397
VEvil Geniuses
p398
aVWinstrike
p399
asL4061815647L
(lp400
VTeam Serenity
p401
aVTeam Secret
p402
asL4061867364L
(lp403
VVirtus.pro
p404
ag15
asL4066615144L
(lp405
g15
aVpaiN Gaming
p406
asL4074694505L
(lp407
VOG
p408
aVEvil Geniuses
p409
asL4064721264L
(lp410
VFnatic
p411
aVOG
p412
asL4063225719L
(lp413
VpaiN Gaming
p414
aVTNC Predator
p415
asL4063369023L
(lp416
VINVICTUS GAMING
p417
aVTeam Liquid
p418
asL4061903681L
(lp419
VNewbee
p420
aVTNC Predator
p421
asL4063667075L
(lp422
VNewbee
p423
aVTeam Serenity
p424
asL4070423361L
(lp425
g15
aVTeam Liquid
p426
asL4076431752L
(lp427
VEvil Geniuses
p428
aVVirtus.pro
p429
asL4066517897L
(lp430
VVici Gaming
p431
aVVirtus.pro
p432
asL4064851344L
(lp433
VVirtus.pro
p434
aVNewbee
p435
asL4065016209L
(lp436
VFnatic
p437
aVPSG.LGD
p438
asL4062062147L
(lp439
VNewbee
p440
aVpaiN Gaming
p441
asL4070500759L
(lp442
VVirtus.pro
p443
aVPSG.LGD
p444
asL4065229720L
(lp445
VINVICTUS GAMING
p446
aVPSG.LGD
p447
asL4066891674L
(lp448
g15
aVVici Gaming
p449
asL4062143387L
(lp450
VVGJ Thunder
p451
aVFnatic
p452
asL4080666526L
(lp453
VOG
p454
aVPSG.LGD
p455
asL4061766981L
(lp456
VINVICTUS GAMING
p457
aVMineski
p458
asL4078180258L
(lp459
VTeam Liquid
p460
aVTeam Secret
p461
asL4064706284L
(lp462
VWinstrike
p463
aVEvil Geniuses
p464
asL4065084843L
(lp465
VINVICTUS GAMING
p466
aVOG
p467
asL4080420268L
(lp468
VEvil Geniuses
p469
aVPSG.LGD
p470
asL4064812973L
(lp471
VINVICTUS GAMING
p472
aVVGJ Thunder
p473
asL4078291886L
(lp474
VOG
p475
aVPSG.LGD
p476
asL4070356125L
(lp477
g15
aVTeam Liquid
p478
asL4065251250L
(lp479
VWinstrike
p480
aVFnatic
p481
asL4074255285L
(lp482
VWinstrike
p483
aVVGJ Storm
p484
asL4062016236L
(lp485
VNewbee
p486
aVpaiN Gaming
p487
asL4061721528L
(lp488
VPSG.LGD
p489
aVOG
p490
asL4062098361L
(lp491
VTeam Secret
p492
aVVGJ Storm
p493
asL4061802430L
(lp494
VVirtus.pro
p495
ag15
asL4064867263L
(lp496
VTeam Serenity
p497
ag15
asL4063439681L
(lp498
VTeam Serenity
p499
aVVici Gaming
p500
asL4062142402L
(lp501
VINVICTUS GAMING
p502
aVWinstrike
p503
asL4076114893L
(lp504
VVirtus.pro
p505
ag15
asL4066608591L
(lp506
VTNC Predator
p507
aVTeam Secret
p508
asL4065175507L
(lp509
g15
aVTeam Secret
p510
asL4061660411L
(lp511
VTeam Liquid
p512
aVFnatic
p513
asL4074356696L
(lp514
VVici Gaming
p515
aVTeam Secret
p516
asL4063601628L
(lp517
g15
aVTNC Predator
p518
asL4070838238L
(lp519
VVici Gaming
p520
aVVGJ Thunder
p521
asL4062183675L
(lp522
VINVICTUS GAMING
p523
aVWinstrike
p524
asL4063646692L
(lp525
VTNC Predator
p526
ag15
asL4061745637L
(lp527
VVGJ Thunder
p528
aVEvil Geniuses
p529
asL4066666471L
(lp530
VFnatic
p531
aVEvil Geniuses
p532
asL4066926568L
(lp533
VNewbee
p534
aVTeam Secret
p535
asL4066838505L
(lp536
VVirtus.pro
p537
aVVGJ Storm
p538
asL4066751467L
(lp539
VWinstrike
p540
aVOG
p541
asL4064993264L
(lp542
VWinstrike
p543
aVTeam Liquid
p544
asL4062103539L
(lp545
VFnatic
p546
aVVGJ Thunder
p547
asL4063521022L
(lp548
VWinstrike
p549
aVVGJ Thunder
p550
asL4064938488L
(lp551
VVirtus.pro
p552
aVNewbee
p553
asL4065129977L
(lp554
VTeam Serenity
p555
aVTNC Predator
p556
asL4063611898L
(lp557
VTeam Secret
p558
aVVici Gaming
p559
asL4066760701L
(lp560
VPSG.LGD
p561
aVMineski
p562
as.