(lp0
L4080856812L
aL4080778303L
aL4080723031L
aL4080666526L
aL4080601137L
aL4080420268L
aL4080316101L
aL4078566725L
aL4078478649L
aL4078412913L
aL4078363316L
aL4078291886L
aL4078180258L
aL4078079157L
aL4076485641L
aL4076431752L
aL4076314248L
aL4076257095L
aL4076188379L
aL4076114893L
aL4076043995L
aL4074821374L
aL4074748928L
aL4074694505L
aL4074639753L
aL4074591870L
aL4074486307L
aL4074440208L
aL4074356696L
aL4074255285L
aL4074178274L
aL4072772695L
aL4072699199L
aL4072635180L
aL4072586507L
aL4072509593L
aL4072441405L
aL4072354014L
aL4072252473L
aL4070838238L
aL4070746269L
aL4070674710L
aL4070612749L
aL4070556816L
aL4070500759L
aL4070423361L
aL4070356125L
aL4067049273L
aL4067035268L
aL4066995932L
aL4066988194L
aL4066926568L
aL4066909869L
aL4066891674L
aL4066891298L
aL4066838505L
aL4066831697L
aL4066823822L
aL4066822873L
aL4066775838L
aL4066760701L
aL4066759760L
aL4066751467L
aL4066704198L
aL4066688247L
aL4066670110L
aL4066666471L
aL4066615144L
aL4066608591L
aL4066598139L
aL4066597494L
aL4066517897L
aL4066505440L
aL4066499349L
aL4066499119L
aL4065281130L
aL4065268827L
aL4065260154L
aL4065251250L
aL4065229720L
aL4065211218L
aL4065211201L
aL4065192690L
aL4065178894L
aL4065175507L
aL4065164937L
aL4065140946L
aL4065129977L
aL4065128649L
aL4065124105L
aL4065095713L
aL4065084843L
aL4065083072L
aL4065077879L
aL4065042825L
aL4065017593L
aL4065016209L
aL4064996401L
aL4064993264L
aL4064970428L
aL4064949771L
aL4064939549L
aL4064938488L
aL4064872015L
aL4064867263L
aL4064854156L
aL4064851344L
aL4064812973L
aL4064796732L
aL4064786780L
aL4064786062L
aL4064721264L
aL4064708096L
aL4064706284L
aL4064706272L
aL4063667075L
aL4063653342L
aL4063646692L
aL4063643412L
aL4063619584L
aL4063611898L
aL4063601628L
aL4063600107L
aL4063572817L
aL4063571098L
aL4063563567L
aL4063558826L
aL4063532336L
aL4063527110L
aL4063521022L
aL4063518923L
aL4063490254L
aL4063481435L
aL4063477071L
aL4063465788L
aL4063439681L
aL4063430773L
aL4063413580L
aL4063402142L
aL4063378608L
aL4063369023L
aL4063359785L
aL4063350513L
aL4063299885L
aL4063289036L
aL4063286002L
aL4063266100L
aL4063225719L
aL4063222284L
aL4063220819L
aL4063202564L
aL4063131437L
aL4063131418L
aL4063131371L
aL4063131353L
aL4062183675L
aL4062151757L
aL4062143387L
aL4062142571L
aL4062142402L
aL4062103539L
aL4062099038L
aL4062098446L
aL4062098361L
aL4062062147L
aL4062061780L
aL4062047269L
aL4062045592L
aL4062034566L
aL4062017242L
aL4062016236L
aL4062010988L
aL4061984521L
aL4061977166L
aL4061971770L
aL4061952570L
aL4061924528L
aL4061922574L
aL4061921764L
aL4061903681L
aL4061880066L
aL4061867364L
aL4061858332L
aL4061848287L
aL4061815647L
aL4061804100L
aL4061802430L
aL4061766981L
aL4061745637L
aL4061742840L
aL4061721528L
aL4061694810L
aL4061671194L
aL4061662358L
aL4061660411L
a.